; Function Attrs: mustprogress uwtable
define hidden void @_ZN3sat7cut_set6shrinkERSt8functionIFvjRKNS_3cutEEEj(ptr noundef nonnull align 8 captures(none) dereferenceable(32) %0, ptr noundef nonnull align 8 dereferenceable(32) %1, i32 noundef %2) local_unnamed_addr #3 align 2 personality ptr @__gxx_personality_v0 {
  %4 = alloca i32, align 4
  %5 = load i32, ptr %0, align 8, !tbaa !23
  %.not = icmp eq i32 %5, -1
  br i1 %.not, label %.loopexit, label %6

6:                                                ; preds = %3
  %7 = getelementptr inbounds nuw i8, ptr %1, i64 16
  %8 = load ptr, ptr %7, align 8, !tbaa !24
  %.not.i.i.not = icmp eq ptr %8, null
  br i1 %.not.i.i.not, label %.loopexit, label %.preheader

.preheader:                                       ; preds = %6
  %9 = getelementptr inbounds nuw i8, ptr %0, i64 16
  %10 = load i32, ptr %9, align 8, !tbaa !3
  %11 = icmp ult i32 %2, %10
  br i1 %11, label %.lr.ph, label %.loopexit

.lr.ph:                                           ; preds = %.preheader
  %12 = getelementptr inbounds nuw i8, ptr %0, i64 24
  %13 = getelementptr inbounds nuw i8, ptr %1, i64 24
  %14 = zext i32 %2 to i64
  br label %15

15:                                               ; preds = %.lr.ph, %_ZNKSt8functionIFvjRKN3sat3cutEEEclEjS3_.exit
  %indvars.iv = phi i64 [ %14, %.lr.ph ], [ %indvars.iv.next, %_ZNKSt8functionIFvjRKN3sat3cutEEEclEjS3_.exit ]
  %16 = load i32, ptr %0, align 8, !tbaa !23
  %17 = load ptr, ptr %12, align 8, !tbaa !11
  call void @llvm.lifetime.start.p0(i64 4, ptr nonnull %4)
  store i32 %16, ptr %4, align 4, !tbaa !16
  %18 = load ptr, ptr %7, align 8, !tbaa !24
  %.not.i.i7 = icmp eq ptr %18, null
  br i1 %.not.i.i7, label %19, label %_ZNKSt8functionIFvjRKN3sat3cutEEEclEjS3_.exit

19:                                               ; preds = %15
  call void @_ZSt25__throw_bad_function_callv() #20
  unreachable

_ZNKSt8functionIFvjRKN3sat3cutEEEclEjS3_.exit:    ; preds = %15
  %20 = getelementptr inbounds nuw %"class.sat::cut", ptr %17, i64 %indvars.iv
  %21 = load ptr, ptr %13, align 8, !tbaa !26
  call void %21(ptr noundef nonnull align 8 dereferenceable(32) %1, ptr noundef nonnull align 4 dereferenceable(4) %4, ptr noundef nonnull align 8 dereferenceable(48) %20)
  call void @llvm.lifetime.end.p0(i64 4, ptr nonnull %4)
  %indvars.iv.next = add nuw nsw i64 %indvars.iv, 1
  %22 = load i32, ptr %9, align 8, !tbaa !3
  %23 = zext i32 %22 to i64
  %24 = icmp samesign ult i64 %indvars.iv.next, %23
  br i1 %24, label %15, label %.loopexit, !llvm.loop !28

.loopexit:                                        ; preds = %_ZNKSt8functionIFvjRKN3sat3cutEEEclEjS3_.exit, %.preheader, %6, %3
  %25 = getelementptr inbounds nuw i8, ptr %0, i64 16
  store i32 %2, ptr %25, align 8, !tbaa !3
  ret void
}